target datalayout = "e-m:e-p270:32:32-p271:32:32-p272:64:64-i64:64-i128:128-f80:128-n8:16:32:64-S128"
target triple = "x86_64-pc-linux-gnu"

%"class.icu_77::StringPiece" = type <{ ptr, i32, [4 x i8] }>

; Function Attrs: mustprogress nounwind uwtable
define linkonce_odr noundef ptr @_ZNK6icu_7711StringPiece4dataEv(ptr noundef nonnull align 8 dereferenceable(12) %0) #0 comdat align 2 {
  %2 = alloca ptr, align 8
  store ptr %0, ptr %2, align 8, !tbaa !3
  %3 = load ptr, ptr %2, align 8
  %4 = getelementptr inbounds nuw %"class.icu_77::StringPiece", ptr %3, i32 0, i32 0
  %5 = load ptr, ptr %4, align 8, !tbaa !10
  ret ptr %5
}

; Function Attrs: mustprogress nounwind uwtable
define linkonce_odr noundef i32 @_ZNK6icu_7711StringPiece4sizeEv(ptr noundef nonnull align 8 dereferenceable(12) %0) #0 comdat align 2 {
  %2 = alloca ptr, align 8
  store ptr %0, ptr %2, align 8, !tbaa !3
  %3 = load ptr, ptr %2, align 8
  %4 = getelementptr inbounds nuw %"class.icu_77::StringPiece", ptr %3, i32 0, i32 1
  %5 = load i32, ptr %4, align 8, !tbaa !13
  ret i32 %5
}

; Function Attrs: mustprogress uwtable
define noundef signext i8 @_ZN6icu_77eqERKNS_11StringPieceES2_(ptr noundef nonnull align 8 dereferenceable(12) %0, ptr noundef nonnull align 8 dereferenceable(12) %1) #2 {
  %3 = alloca i8, align 1
  %4 = alloca ptr, align 8
  %5 = alloca ptr, align 8
  %6 = alloca i32, align 4
  %7 = alloca i32, align 4
  %8 = alloca ptr, align 8
  %9 = alloca ptr, align 8
  store ptr %0, ptr %4, align 8, !tbaa !3
  store ptr %1, ptr %5, align 8, !tbaa !3
  call void @llvm.lifetime.start.p0(i64 4, ptr %6) #5
  %10 = load ptr, ptr %4, align 8, !tbaa !3
  %11 = call noundef i32 @_ZNK6icu_7711StringPiece4sizeEv(ptr noundef nonnull align 8 dereferenceable(12) %10)
  store i32 %11, ptr %6, align 4, !tbaa !14
  %12 = load i32, ptr %6, align 4, !tbaa !14
  %13 = load ptr, ptr %5, align 8, !tbaa !3
  %14 = call noundef i32 @_ZNK6icu_7711StringPiece4sizeEv(ptr noundef nonnull align 8 dereferenceable(12) %13)
  %15 = icmp ne i32 %12, %14
  br i1 %15, label %16, label %17

16:                                               ; preds = %2
  store i8 0, ptr %3, align 1
  store i32 1, ptr %7, align 4
  br label %51

17:                                               ; preds = %2
  %18 = load i32, ptr %6, align 4, !tbaa !14
  %19 = icmp eq i32 %18, 0
  br i1 %19, label %20, label %21

20:                                               ; preds = %17
  store i8 1, ptr %3, align 1
  store i32 1, ptr %7, align 4
  br label %51

21:                                               ; preds = %17
  call void @llvm.lifetime.start.p0(i64 8, ptr %8) #5
  %22 = load ptr, ptr %4, align 8, !tbaa !3
  %23 = call noundef ptr @_ZNK6icu_7711StringPiece4dataEv(ptr noundef nonnull align 8 dereferenceable(12) %22)
  store ptr %23, ptr %8, align 8, !tbaa !8
  call void @llvm.lifetime.start.p0(i64 8, ptr %9) #5
  %24 = load ptr, ptr %5, align 8, !tbaa !3
  %25 = call noundef ptr @_ZNK6icu_7711StringPiece4dataEv(ptr noundef nonnull align 8 dereferenceable(12) %24)
  store ptr %25, ptr %9, align 8, !tbaa !8
  %26 = load i32, ptr %6, align 4, !tbaa !14
  %27 = add nsw i32 %26, -1
  store i32 %27, ptr %6, align 4, !tbaa !14
  %28 = load ptr, ptr %8, align 8, !tbaa !8
  %29 = load i32, ptr %6, align 4, !tbaa !14
  %30 = sext i32 %29 to i64
  %31 = getelementptr inbounds i8, ptr %28, i64 %30
  %32 = load i8, ptr %31, align 1, !tbaa !15
  %33 = sext i8 %32 to i32
  %34 = load ptr, ptr %9, align 8, !tbaa !8
  %35 = load i32, ptr %6, align 4, !tbaa !14
  %36 = sext i32 %35 to i64
  %37 = getelementptr inbounds i8, ptr %34, i64 %36
  %38 = load i8, ptr %37, align 1, !tbaa !15
  %39 = sext i8 %38 to i32
  %40 = icmp ne i32 %33, %39
  br i1 %40, label %41, label %42

41:                                               ; preds = %21
  store i8 0, ptr %3, align 1
  store i32 1, ptr %7, align 4
  br label %50

42:                                               ; preds = %21
  %43 = load ptr, ptr %8, align 8, !tbaa !8
  %44 = load ptr, ptr %9, align 8, !tbaa !8
  %45 = load i32, ptr %6, align 4, !tbaa !14
  %46 = sext i32 %45 to i64
  %47 = call i32 @memcmp(ptr noundef %43, ptr noundef %44, i64 noundef %46) #4
  %48 = icmp eq i32 %47, 0
  %49 = zext i1 %48 to i8
  store i8 %49, ptr %3, align 1
  store i32 1, ptr %7, align 4
  br label %50

50:                                               ; preds = %42, %41
  call void @llvm.lifetime.end.p0(i64 8, ptr %9) #5
  call void @llvm.lifetime.end.p0(i64 8, ptr %8) #5
  br label %51

51:                                               ; preds = %50, %20, %16
  call void @llvm.lifetime.end.p0(i64 4, ptr %6) #5
  %52 = load i8, ptr %3, align 1
  ret i8 %52
}