; Function Attrs: mustprogress nofree nounwind willreturn memory(read, inaccessiblemem: none) uwtable
define noundef signext range(i8 0, 2) i8 @_ZN6icu_77eqERKNS_11StringPieceES2_(ptr noundef nonnull readonly align 8 captures(none) dereferenceable(12) %0, ptr noundef nonnull readonly align 8 captures(none) dereferenceable(12) %1) local_unnamed_addr #4 {
  %3 = getelementptr inbounds nuw i8, ptr %0, i64 8
  %4 = load i32, ptr %3, align 8, !tbaa !10
  %5 = getelementptr inbounds nuw i8, ptr %1, i64 8
  %6 = load i32, ptr %5, align 8, !tbaa !10
  %.not = icmp eq i32 %4, %6
  br i1 %.not, label %7, label %21

7:                                                ; preds = %2
  %8 = icmp eq i32 %4, 0
  br i1 %8, label %21, label %9

9:                                                ; preds = %7
  %10 = load ptr, ptr %0, align 8, !tbaa !3
  %11 = load ptr, ptr %1, align 8, !tbaa !3
  %12 = add nsw i32 %4, -1
  %13 = sext i32 %12 to i64
  %14 = getelementptr inbounds i8, ptr %10, i64 %13
  %15 = load i8, ptr %14, align 1, !tbaa !11
  %16 = getelementptr inbounds i8, ptr %11, i64 %13
  %17 = load i8, ptr %16, align 1, !tbaa !11
  %.not15 = icmp eq i8 %15, %17
  br i1 %.not15, label %18, label %21

18:                                               ; preds = %9
  %bcmp = tail call i32 @bcmp(ptr nonnull %10, ptr nonnull %11, i64 %13)
  %19 = icmp eq i32 %bcmp, 0
  %20 = zext i1 %19 to i8
  br label %21

21:                                               ; preds = %18, %9, %7, %2
  %.0 = phi i8 [ 0, %2 ], [ 1, %7 ], [ %20, %18 ], [ 0, %9 ]
  ret i8 %.0
}